; Function Attrs: nounwind uwtable
define i64 @ZSTD_toFlushNow(ptr noundef readonly captures(none) %0) local_unnamed_addr #2 {
  %2 = getelementptr inbounds nuw i8, ptr %0, i64 316
  %3 = load i32, ptr %2, align 4, !tbaa !149
  %4 = icmp sgt i32 %3, 0
  br i1 %4, label %5, label %9

5:                                                ; preds = %1
  %6 = getelementptr inbounds nuw i8, ptr %0, i64 3760
  %7 = load ptr, ptr %6, align 8, !tbaa !60
  %8 = tail call i64 @ZSTDMT_toFlushNow(ptr noundef %7) #28
  br label %9

9:                                                ; preds = %1, %5
  %.0 = phi i64 [ %8, %5 ], [ 0, %1 ]
  ret i64 %.0
}